Certificate:
    Data:
        Version: 3 (0x2)
        Serial Number:
            3e:18:10:86:d3:b2:70:8d:79:69:5f:6b:65:e5:75:ea:7a:f3:b7:92
        Signature Algorithm: sha256WithRSAEncryption
        Issuer: C = NZ, ST = None, L = city, O = NS Positronics, OU = Dev, CN = leashapi_postgres_1, emailAddress = na
        Validity
            Not Before: Apr  3 06:03:53 2020 GMT
            Not After : May  3 06:03:53 2020 GMT
        Subject: C = NZ, ST = None, L = city, O = NS Positronics, OU = Dev, CN = leashapi_postgres_1, emailAddress = na
        Subject Public Key Info:
            Public Key Algorithm: rsaEncryption
                RSA Public-Key: (2048 bit)
                Modulus:
                    00:c2:d6:59:7e:4f:fc:82:bf:22:aa:dc:af:77:5f:
                    97:98:2c:2d:0f:cb:4c:1c:08:13:63:18:d7:de:9d:
                    62:c0:72:9b:51:75:53:f0:12:7d:dc:c1:e5:b3:40:
                    5b:55:f4:cb:c0:4d:33:db:40:dd:40:52:64:77:da:
                    66:6a:7d:ba:6f:2d:db:dc:1d:f2:f8:c1:5e:23:5e:
                    9f:45:58:53:66:34:a7:3d:9d:aa:21:1b:5d:df:f5:
                    4d:50:18:e5:f0:a9:e6:a4:26:68:8c:38:7e:f5:03:
                    e2:e0:af:d1:dc:5c:2d:43:48:f5:9f:09:4b:9c:b5:
                    62:82:9a:d0:05:33:b4:ed:ba:d8:95:46:94:cb:db:
                    fd:a3:20:e8:35:6f:a1:79:80:e5:8f:db:c3:53:a9:
                    cf:82:ac:42:f5:84:a0:91:b4:d2:d1:3b:77:04:e1:
                    5f:47:82:53:af:46:38:c0:88:c0:74:7e:aa:c7:8d:
                    da:cf:93:8c:55:0e:39:5f:ee:a2:f9:1c:0f:60:a7:
                    2b:ab:bf:27:61:c5:c3:3b:52:79:b6:48:f3:f0:57:
                    1c:eb:6f:9f:43:14:97:53:df:e1:94:f5:d4:37:9b:
                    93:3d:71:ed:0e:07:52:f4:46:ba:59:85:8e:7c:f4:
                    0a:f0:03:c5:24:e3:f9:f5:cf:9d:b8:58:e1:a5:13:
                    0d:1f
                Exponent: 65537 (0x10001)
        X509v3 extensions:
            X509v3 Subject Key Identifier: 
                3F:5A:1B:3E:9C:E2:AC:6F:A5:13:97:7D:44:F9:7E:2D:20:49:0F:25
            X509v3 Authority Key Identifier: 
                keyid:3F:5A:1B:3E:9C:E2:AC:6F:A5:13:97:7D:44:F9:7E:2D:20:49:0F:25

            X509v3 Basic Constraints: critical
                CA:TRUE
    Signature Algorithm: sha256WithRSAEncryption
         87:a5:e9:15:cd:2e:e6:94:73:92:2c:94:b1:ae:1d:d0:68:f8:
         2c:3d:7c:cc:a1:a0:fb:52:d2:84:48:10:19:54:0d:5b:2e:9a:
         15:b9:cb:d1:ab:06:57:e8:58:df:38:ec:ed:e7:20:9f:3a:5c:
         a5:ff:29:2d:e0:03:8d:2c:84:40:16:cf:1b:13:15:a2:a9:21:
         ba:75:ca:53:8b:cb:24:21:ce:47:ed:57:01:4a:db:54:76:18:
         a8:9c:da:5d:82:0d:74:bc:a2:a6:ca:47:7e:89:d2:30:da:f2:
         a3:ad:6a:d6:02:e4:da:86:46:90:70:b3:12:f1:c3:c4:61:dd:
         b4:7f:5d:43:24:42:bf:bb:61:ba:ff:8f:93:80:f4:a7:df:06:
         c6:43:ff:bb:2c:2d:b6:08:2b:1b:49:99:43:3b:b1:8f:70:0c:
         2d:3e:42:68:00:eb:cc:3a:db:b7:a6:6f:92:65:36:f0:b0:1e:
         2d:fd:37:71:a9:0d:28:c0:0e:e8:4f:80:dd:df:a4:a0:99:fd:
         12:51:bf:03:b5:48:7a:e2:79:25:b8:d5:99:d3:f0:91:86:19:
         32:81:8f:cf:14:e5:49:fa:18:97:27:1b:51:43:01:e3:38:4a:
         46:af:fd:35:21:4c:f4:ea:72:88:54:fe:4c:89:ea:96:0d:cb:
         55:4f:ea:40
-----BEGIN CERTIFICATE-----
MIID6TCCAtGgAwIBAgIUPhgQhtOycI15aV9rZeV16nrzt5IwDQYJKoZIhvcNAQEL
BQAwgYMxCzAJBgNVBAYTAk5aMQ0wCwYDVQQIDAROb25lMQ0wCwYDVQQHDARjaXR5
MRcwFQYDVQQKDA5OUyBQb3NpdHJvbmljczEMMAoGA1UECwwDRGV2MRwwGgYDVQQD
DBNsZWFzaGFwaV9wb3N0Z3Jlc18xMREwDwYJKoZIhvcNAQkBFgJuYTAeFw0yMDA0
MDMwNjAzNTNaFw0yMDA1MDMwNjAzNTNaMIGDMQswCQYDVQQGEwJOWjENMAsGA1UE
CAwETm9uZTENMAsGA1UEBwwEY2l0eTEXMBUGA1UECgwOTlMgUG9zaXRyb25pY3Mx
DDAKBgNVBAsMA0RldjEcMBoGA1UEAwwTbGVhc2hhcGlfcG9zdGdyZXNfMTERMA8G
CSqGSIb3DQEJARYCbmEwggEiMA0GCSqGSIb3DQEBAQUAA4IBDwAwggEKAoIBAQDC
1ll+T/yCvyKq3K93X5eYLC0Py0wcCBNjGNfenWLAcptRdVPwEn3cweWzQFtV9MvA
TTPbQN1AUmR32mZqfbpvLdvcHfL4wV4jXp9FWFNmNKc9naohG13f9U1QGOXwqeak
JmiMOH71A+Lgr9HcXC1DSPWfCUuctWKCmtAFM7TtutiVRpTL2/2jIOg1b6F5gOWP
28NTqc+CrEL1hKCRtNLRO3cE4V9HglOvRjjAiMB0fqrHjdrPk4xVDjlf7qL5HA9g
pyurvydhxcM7Unm2SPPwVxzrb59DFJdT3+GU9dQ3m5M9ce0OB1L0RrpZhY589Arw
A8Uk4/n1z524WOGlEw0fAgMBAAGjUzBRMB0GA1UdDgQWBBQ/Whs+nOKsb6UTl31E
+X4tIEkPJTAfBgNVHSMEGDAWgBQ/Whs+nOKsb6UTl31E+X4tIEkPJTAPBgNVHRMB
Af8EBTADAQH/MA0GCSqGSIb3DQEBCwUAA4IBAQCHpekVzS7mlHOSLJSxrh3QaPgs
PXzMoaD7UtKESBAZVA1bLpoVucvRqwZX6FjfOOzt5yCfOlyl/ykt4AONLIRAFs8b
ExWiqSG6dcpTi8skIc5H7VcBSttUdhionNpdgg10vKKmykd+idIw2vKjrWrWAuTa
hkaQcLMS8cPEYd20f11DJEK/u2G6/4+TgPSn3wbGQ/+7LC22CCsbSZlDO7GPcAwt
PkJoAOvMOtu3pm+SZTbwsB4t/TdxqQ0owA7oT4Dd36Sgmf0SUb8DtUh64nkluNWZ
0/CRhhkygY/PFOVJ+hiXJxtRQwHjOEpGr/01IUz06nKIVP5MieqWDctVT+pA
-----END CERTIFICATE-----
